target datalayout = "e-m:e-p270:32:32-p271:32:32-p272:64:64-i64:64-i128:128-f80:128-n8:16:32:64-S128"
target triple = "x86_64-pc-linux-gnu"

%struct.If_Obj_t_ = type { i32, i32, i32, i32, i32, i32, ptr, ptr, ptr, float, float, float, %union.anon, ptr, %struct.If_Cut_t_ }
%union.anon = type { ptr }
%struct.If_Cut_t_ = type <{ float, float, float, float, i32, i32, i32, i64, [0 x i32] }>
%struct.Vec_Ptr_t_ = type { i32, i32, ptr }
%struct.If_Man_t_ = type { ptr, ptr, ptr, ptr, ptr, ptr, ptr, ptr, [5 x i32], i32, float, float, float, float, i32, float, i32, i32, [4 x ptr], ptr, i32, i32, i32, ptr, [3 x [32 x i32]], i32, i32, i32, ptr, ptr, ptr, ptr, ptr, ptr, ptr, i32, i32, i32, [16 x i32], i32, i32, i32, i32, ptr, ptr, ptr, ptr, ptr, i32, i32, [32 x i32], [32 x i32], i32, i32, i32, i32, ptr, [16 x ptr], [16 x ptr], [16 x ptr], [16 x ptr], [16 x ptr], [16 x ptr], [16 x ptr], ptr, ptr, ptr, ptr, [32 x i8], i32, i32, i32, [6 x i64], [2 x i32], [2 x i32], ptr, [15 x i32], ptr, ptr, ptr, [16 x i32], ptr, ptr, ptr, ptr, [2 x i32], [2 x i32], [2 x ptr], ptr }

@.str.1 = private unnamed_addr constant [5 x i8] c"Cut \00", align 1
@.str.2 = private unnamed_addr constant [4 x i8] c"%d \00", align 1
@.str.3 = private unnamed_addr constant [2 x i8] c"\0A\00", align 1

; Function Attrs: inlinehint nounwind uwtable
define internal ptr @If_ManObj(ptr noundef %0, i32 noundef %1) #2 {
  %3 = alloca ptr, align 8
  %4 = alloca i32, align 4
  store ptr %0, ptr %3, align 8, !tbaa !3
  store i32 %1, ptr %4, align 4, !tbaa !23
  %5 = load ptr, ptr %3, align 8, !tbaa !3
  %6 = getelementptr inbounds nuw %struct.If_Man_t_, ptr %5, i32 0, i32 5
  %7 = load ptr, ptr %6, align 8, !tbaa !45
  %8 = load i32, ptr %4, align 4, !tbaa !23
  %9 = call ptr @Vec_PtrEntry(ptr noundef %7, i32 noundef %8)
  ret ptr %9
}

; Function Attrs: inlinehint nounwind uwtable
define internal ptr @If_ObjCutBest(ptr noundef %0) #2 {
  %2 = alloca ptr, align 8
  store ptr %0, ptr %2, align 8, !tbaa !8
  %3 = load ptr, ptr %2, align 8, !tbaa !8
  %4 = getelementptr inbounds nuw %struct.If_Obj_t_, ptr %3, i32 0, i32 14
  ret ptr %4
}

; Function Attrs: inlinehint nounwind uwtable
define internal void @If_CutSetDataInt(ptr noundef %0, i32 noundef %1) #2 {
  %3 = alloca ptr, align 8
  %4 = alloca i32, align 4
  store ptr %0, ptr %3, align 8, !tbaa !12
  store i32 %1, ptr %4, align 4, !tbaa !23
  %5 = load i32, ptr %4, align 4, !tbaa !23
  %6 = load ptr, ptr %3, align 8, !tbaa !12
  store i32 %5, ptr %6, align 4, !tbaa !23
  ret void
}

; Function Attrs: inlinehint nounwind uwtable
define internal ptr @Vec_PtrEntry(ptr noundef %0, i32 noundef %1) #2 {
  %3 = alloca ptr, align 8
  %4 = alloca i32, align 4
  store ptr %0, ptr %3, align 8, !tbaa !10
  store i32 %1, ptr %4, align 4, !tbaa !23
  %5 = load ptr, ptr %3, align 8, !tbaa !10
  %6 = getelementptr inbounds nuw %struct.Vec_Ptr_t_, ptr %5, i32 0, i32 2
  %7 = load ptr, ptr %6, align 8, !tbaa !28
  %8 = load i32, ptr %4, align 4, !tbaa !23
  %9 = sext i32 %8 to i64
  %10 = getelementptr inbounds ptr, ptr %7, i64 %9
  %11 = load ptr, ptr %10, align 8, !tbaa !24
  ret ptr %11
}

; Function Attrs: inlinehint nounwind uwtable
define internal i32 @Vec_PtrSize(ptr noundef %0) #2 {
  %2 = alloca ptr, align 8
  store ptr %0, ptr %2, align 8, !tbaa !10
  %3 = load ptr, ptr %2, align 8, !tbaa !10
  %4 = getelementptr inbounds nuw %struct.Vec_Ptr_t_, ptr %3, i32 0, i32 1
  %5 = load i32, ptr %4, align 4, !tbaa !25
  ret i32 %5
}

; Function Attrs: inlinehint nounwind uwtable
define internal void @Vec_PtrClear(ptr noundef %0) #2 {
  %2 = alloca ptr, align 8
  store ptr %0, ptr %2, align 8, !tbaa !10
  %3 = load ptr, ptr %2, align 8, !tbaa !10
  %4 = getelementptr inbounds nuw %struct.Vec_Ptr_t_, ptr %3, i32 0, i32 1
  store i32 0, ptr %4, align 4, !tbaa !25
  ret void
}

; Function Attrs: nounwind uwtable
define void @If_ObjConePrint(ptr noundef %0, ptr noundef %1) #0 {
  %3 = alloca ptr, align 8
  %4 = alloca ptr, align 8
  %5 = alloca ptr, align 8
  %6 = alloca ptr, align 8
  %7 = alloca i32, align 4
  store ptr %0, ptr %3, align 8, !tbaa !3
  store ptr %1, ptr %4, align 8, !tbaa !8
  call void @llvm.lifetime.start.p0(i64 8, ptr %5) #9
  call void @llvm.lifetime.start.p0(i64 8, ptr %6) #9
  call void @llvm.lifetime.start.p0(i64 4, ptr %7) #9
  %8 = load ptr, ptr %3, align 8, !tbaa !3
  %9 = getelementptr inbounds nuw %struct.If_Man_t_, ptr %8, i32 0, i32 7
  %10 = load ptr, ptr %9, align 8, !tbaa !29
  call void @Vec_PtrClear(ptr noundef %10)
  %11 = load ptr, ptr %3, align 8, !tbaa !3
  %12 = load ptr, ptr %4, align 8, !tbaa !8
  %13 = load ptr, ptr %3, align 8, !tbaa !3
  %14 = getelementptr inbounds nuw %struct.If_Man_t_, ptr %13, i32 0, i32 7
  %15 = load ptr, ptr %14, align 8, !tbaa !29
  call void @If_ObjConePrint_rec(ptr noundef %11, ptr noundef %12, ptr noundef %15)
  store i32 0, ptr %7, align 4, !tbaa !23
  br label %16

16:                                               ; preds = %33, %2
  %17 = load i32, ptr %7, align 4, !tbaa !23
  %18 = load ptr, ptr %3, align 8, !tbaa !3
  %19 = getelementptr inbounds nuw %struct.If_Man_t_, ptr %18, i32 0, i32 7
  %20 = load ptr, ptr %19, align 8, !tbaa !29
  %21 = call i32 @Vec_PtrSize(ptr noundef %20)
  %22 = icmp slt i32 %17, %21
  br i1 %22, label %23, label %29

23:                                               ; preds = %16
  %24 = load ptr, ptr %3, align 8, !tbaa !3
  %25 = getelementptr inbounds nuw %struct.If_Man_t_, ptr %24, i32 0, i32 7
  %26 = load ptr, ptr %25, align 8, !tbaa !29
  %27 = load i32, ptr %7, align 4, !tbaa !23
  %28 = call ptr @Vec_PtrEntry(ptr noundef %26, i32 noundef %27)
  store ptr %28, ptr %5, align 8, !tbaa !12
  br label %29

29:                                               ; preds = %23, %16
  %30 = phi i1 [ false, %16 ], [ true, %23 ]
  br i1 %30, label %31, label %36

31:                                               ; preds = %29
  %32 = load ptr, ptr %5, align 8, !tbaa !12
  call void @If_CutSetDataInt(ptr noundef %32, i32 noundef 0)
  br label %33

33:                                               ; preds = %31
  %34 = load i32, ptr %7, align 4, !tbaa !23
  %35 = add nsw i32 %34, 1
  store i32 %35, ptr %7, align 4, !tbaa !23
  br label %16, !llvm.loop !42

36:                                               ; preds = %29
  %37 = call i32 (ptr, ...) @printf(ptr noundef @.str.1)
  %38 = load ptr, ptr %4, align 8, !tbaa !8
  %39 = call ptr @If_ObjCutBest(ptr noundef %38)
  store ptr %39, ptr %5, align 8, !tbaa !12
  store i32 0, ptr %7, align 4, !tbaa !23
  br label %40

40:                                               ; preds = %66, %36
  %41 = load i32, ptr %7, align 4, !tbaa !23
  %42 = load ptr, ptr %5, align 8, !tbaa !12
  %43 = getelementptr inbounds nuw %struct.If_Cut_t_, ptr %42, i32 0, i32 7
  %44 = load i64, ptr %43, align 4
  %45 = lshr i64 %44, 24
  %46 = and i64 %45, 255
  %47 = trunc i64 %46 to i32
  %48 = icmp slt i32 %41, %47
  br i1 %48, label %49, label %59

49:                                               ; preds = %40
  %50 = load ptr, ptr %3, align 8, !tbaa !3
  %51 = load ptr, ptr %5, align 8, !tbaa !12
  %52 = getelementptr inbounds nuw %struct.If_Cut_t_, ptr %51, i32 0, i32 8
  %53 = load i32, ptr %7, align 4, !tbaa !23
  %54 = sext i32 %53 to i64
  %55 = getelementptr inbounds [0 x i32], ptr %52, i64 0, i64 %54
  %56 = load i32, ptr %55, align 4, !tbaa !23
  %57 = call ptr @If_ManObj(ptr noundef %50, i32 noundef %56)
  store ptr %57, ptr %6, align 8, !tbaa !8
  %58 = icmp ne ptr %57, null
  br label %59

59:                                               ; preds = %49, %40
  %60 = phi i1 [ false, %40 ], [ %58, %49 ]
  br i1 %60, label %61, label %69

61:                                               ; preds = %59
  %62 = load ptr, ptr %6, align 8, !tbaa !8
  %63 = getelementptr inbounds nuw %struct.If_Obj_t_, ptr %62, i32 0, i32 1
  %64 = load i32, ptr %63, align 4, !tbaa !22
  %65 = call i32 (ptr, ...) @printf(ptr noundef @.str.2, i32 noundef %64)
  br label %66

66:                                               ; preds = %61
  %67 = load i32, ptr %7, align 4, !tbaa !23
  %68 = add nsw i32 %67, 1
  store i32 %68, ptr %7, align 4, !tbaa !23
  br label %40, !llvm.loop !44

69:                                               ; preds = %59
  %70 = call i32 (ptr, ...) @printf(ptr noundef @.str.3)
  call void @llvm.lifetime.end.p0(i64 4, ptr %7) #9
  call void @llvm.lifetime.end.p0(i64 8, ptr %6) #9
  call void @llvm.lifetime.end.p0(i64 8, ptr %5) #9
  ret void
}