; Function Attrs: nounwind uwtable
define void @If_ObjConePrint(ptr noundef %0, ptr noundef %1) local_unnamed_addr #0 {
  %3 = getelementptr inbounds nuw i8, ptr %0, i64 56
  %4 = load ptr, ptr %3, align 8, !tbaa !22
  %5 = getelementptr inbounds nuw i8, ptr %4, i64 4
  store i32 0, ptr %5, align 4, !tbaa !7
  tail call void @If_ObjConePrint_rec(ptr noundef %0, ptr noundef %1, ptr noundef %4)
  %6 = load ptr, ptr %3, align 8, !tbaa !22
  %7 = getelementptr i8, ptr %6, i64 4
  %.val22 = load i32, ptr %7, align 4, !tbaa !7
  %8 = icmp sgt i32 %.val22, 0
  br i1 %8, label %.lr.ph, label %.critedge

.lr.ph:                                           ; preds = %2
  %9 = getelementptr i8, ptr %6, i64 8
  %.val20 = load ptr, ptr %9, align 8, !tbaa !11
  br label %10

10:                                               ; preds = %.lr.ph, %10
  %indvars.iv = phi i64 [ 0, %.lr.ph ], [ %indvars.iv.next, %10 ]
  %11 = getelementptr inbounds nuw ptr, ptr %.val20, i64 %indvars.iv
  %12 = load ptr, ptr %11, align 8, !tbaa !12
  store i32 0, ptr %12, align 4, !tbaa !3
  %indvars.iv.next = add nuw nsw i64 %indvars.iv, 1
  %.val = load i32, ptr %7, align 4, !tbaa !7
  %13 = sext i32 %.val to i64
  %14 = icmp slt i64 %indvars.iv.next, %13
  br i1 %14, label %10, label %.critedge, !llvm.loop !36

.critedge:                                        ; preds = %10, %2
  %15 = tail call i32 (ptr, ...) @printf(ptr noundef nonnull dereferenceable(1) @.str.1)
  %16 = getelementptr inbounds nuw i8, ptr %1, i64 116
  %17 = getelementptr inbounds nuw i8, ptr %1, i64 108
  %18 = load i64, ptr %17, align 4
  %19 = and i64 %18, 4278190080
  %.not27 = icmp eq i64 %19, 0
  br i1 %.not27, label %.critedge2, label %.lr.ph25

.lr.ph25:                                         ; preds = %.critedge
  %20 = getelementptr i8, ptr %0, i64 40
  br label %21

21:                                               ; preds = %.lr.ph25, %28
  %indvars.iv29 = phi i64 [ 0, %.lr.ph25 ], [ %indvars.iv.next30, %28 ]
  %22 = getelementptr inbounds nuw [0 x i32], ptr %16, i64 0, i64 %indvars.iv29
  %23 = load i32, ptr %22, align 4, !tbaa !3
  %.val21 = load ptr, ptr %20, align 8, !tbaa !38
  %24 = getelementptr i8, ptr %.val21, i64 8
  %.val21.val = load ptr, ptr %24, align 8, !tbaa !11
  %25 = sext i32 %23 to i64
  %26 = getelementptr inbounds ptr, ptr %.val21.val, i64 %25
  %27 = load ptr, ptr %26, align 8, !tbaa !12
  %.not = icmp eq ptr %27, null
  br i1 %.not, label %.critedge2, label %28

28:                                               ; preds = %21
  %29 = getelementptr inbounds nuw i8, ptr %27, i64 4
  %30 = load i32, ptr %29, align 4, !tbaa !21
  %31 = tail call i32 (ptr, ...) @printf(ptr noundef nonnull dereferenceable(1) @.str.2, i32 noundef %30)
  %indvars.iv.next30 = add nuw nsw i64 %indvars.iv29, 1
  %32 = load i64, ptr %17, align 4
  %33 = lshr i64 %32, 24
  %34 = and i64 %33, 255
  %35 = icmp samesign ult i64 %indvars.iv.next30, %34
  br i1 %35, label %21, label %.critedge2, !llvm.loop !39

.critedge2:                                       ; preds = %21, %28, %.critedge
  %putchar = tail call i32 @putchar(i32 10)
  ret void
}